; Function Attrs: mustprogress uwtable
define noundef ptr @ucal_clone_75(ptr noundef %cal, ptr nocapture noundef %status) local_unnamed_addr #1 {
entry:
  %0 = load i32, ptr %status, align 4
  %cmp.i = icmp slt i32 %0, 1
  br i1 %cmp.i, label %if.end, label %return

if.end:                                           ; preds = %entry
  %vtable = load ptr, ptr %cal, align 8
  %vfn = getelementptr inbounds i8, ptr %vtable, i64 24
  %1 = load ptr, ptr %vfn, align 8
  %call1 = tail call noundef ptr %1(ptr noundef nonnull align 8 dereferenceable(618) %cal)
  %cmp = icmp eq ptr %call1, null
  br i1 %cmp, label %if.then2, label %return

if.then2:                                         ; preds = %if.end
  store i32 7, ptr %status, align 4
  br label %return

return:                                           ; preds = %if.end, %entry, %if.then2
  %retval.0 = phi ptr [ null, %if.then2 ], [ null, %entry ], [ %call1, %if.end ]
  ret ptr %retval.0
}